target datalayout = "e-m:e-p270:32:32-p271:32:32-p272:64:64-i64:64-i128:128-f80:128-n8:16:32:64-S128"
target triple = "x86_64-pc-linux-gnu"

%struct._object = type { %union.anon, ptr }
%union.anon = type { i64 }
%struct.anon.0 = type { i32, i32 }

@_Py_NoneStruct = external global %struct._object, align 8
@PyExc_TypeError = external global ptr, align 8
@PyExc_ImportError = external global ptr, align 8
@_Py_tss_tstate = external thread_local global ptr, align 8
@.str.26 = private unnamed_addr constant [35 x i8] c"expected a subclass of ImportError\00", align 1
@.str.27 = private unnamed_addr constant [28 x i8] c"expected a message argument\00", align 1
@.str.28 = private unnamed_addr constant [5 x i8] c"name\00", align 1
@.str.29 = private unnamed_addr constant [5 x i8] c"path\00", align 1
@.str.30 = private unnamed_addr constant [10 x i8] c"name_from\00", align 1

; Function Attrs: alwaysinline nounwind uwtable
define internal i32 @_Py_IsImmortal(ptr noundef %0) #3 {
  %2 = alloca ptr, align 8
  store ptr %0, ptr %2, align 8, !tbaa !9
  %3 = load ptr, ptr %2, align 8, !tbaa !9
  %4 = getelementptr inbounds nuw %struct._object, ptr %3, i32 0, i32 0
  %5 = getelementptr inbounds nuw %struct.anon.0, ptr %4, i32 0, i32 0
  %6 = load i32, ptr %5, align 8, !tbaa !36
  %7 = icmp slt i32 %6, 0
  %8 = zext i1 %7 to i32
  ret i32 %8
}

; Function Attrs: alwaysinline nounwind uwtable
define internal void @Py_DECREF(ptr noundef %0) #3 {
  %2 = alloca ptr, align 8
  store ptr %0, ptr %2, align 8, !tbaa !9
  %3 = load ptr, ptr %2, align 8, !tbaa !9
  %4 = call i32 @_Py_IsImmortal(ptr noundef %3)
  %5 = icmp ne i32 %4, 0
  br i1 %5, label %6, label %7

6:                                                ; preds = %1
  br label %16

7:                                                ; preds = %1
  %8 = load ptr, ptr %2, align 8, !tbaa !9
  %9 = getelementptr inbounds nuw %struct._object, ptr %8, i32 0, i32 0
  %10 = getelementptr inbounds nuw %struct.anon.0, ptr %9, i32 0, i32 0
  %11 = load i32, ptr %10, align 8, !tbaa !36
  %12 = add i32 %11, -1
  store i32 %12, ptr %10, align 8, !tbaa !36
  %13 = icmp eq i32 %12, 0
  br i1 %13, label %14, label %16

14:                                               ; preds = %7
  %15 = load ptr, ptr %2, align 8, !tbaa !9
  call void @_Py_Dealloc(ptr noundef %15)
  br label %16

16:                                               ; preds = %6, %14, %7
  ret void
}

; Function Attrs: inlinehint nounwind uwtable
define internal ptr @_Py_TYPE(ptr noundef %0) #2 {
  %2 = alloca ptr, align 8
  store ptr %0, ptr %2, align 8, !tbaa !9
  %3 = load ptr, ptr %2, align 8, !tbaa !9
  %4 = getelementptr inbounds nuw %struct._object, ptr %3, i32 0, i32 1
  %5 = load ptr, ptr %4, align 8, !tbaa !26
  ret ptr %5
}

; Function Attrs: nounwind uwtable
define dso_local void @_PyErr_SetString(ptr noundef %0, ptr noundef %1, ptr noundef %2) #0 {
  %4 = alloca ptr, align 8
  %5 = alloca ptr, align 8
  %6 = alloca ptr, align 8
  %7 = alloca ptr, align 8
  store ptr %0, ptr %4, align 8, !tbaa !4
  store ptr %1, ptr %5, align 8, !tbaa !9
  store ptr %2, ptr %6, align 8, !tbaa !38
  call void @llvm.lifetime.start.p0(i64 8, ptr %7) #13
  %8 = load ptr, ptr %6, align 8, !tbaa !38
  %9 = call ptr @PyUnicode_FromString(ptr noundef %8)
  store ptr %9, ptr %7, align 8, !tbaa !9
  %10 = load ptr, ptr %7, align 8, !tbaa !9
  %11 = icmp ne ptr %10, null
  br i1 %11, label %12, label %17

12:                                               ; preds = %3
  %13 = load ptr, ptr %4, align 8, !tbaa !4
  %14 = load ptr, ptr %5, align 8, !tbaa !9
  %15 = load ptr, ptr %7, align 8, !tbaa !9
  call void @_PyErr_SetObject(ptr noundef %13, ptr noundef %14, ptr noundef %15)
  %16 = load ptr, ptr %7, align 8, !tbaa !9
  call void @Py_DECREF(ptr noundef %16)
  br label %17

17:                                               ; preds = %12, %3
  call void @llvm.lifetime.end.p0(i64 8, ptr %7) #13
  ret void
}

; Function Attrs: inlinehint nounwind uwtable
define internal ptr @_PyThreadState_GET() #2 {
  %1 = call align 8 ptr @llvm.threadlocal.address.p0(ptr align 8 @_Py_tss_tstate)
  %2 = load ptr, ptr %1, align 8, !tbaa !4
  ret ptr %2
}

; Function Attrs: nounwind uwtable
define internal ptr @_PyErr_SetImportErrorSubclassWithNameFrom(ptr noundef %0, ptr noundef %1, ptr noundef %2, ptr noundef %3, ptr noundef %4) #0 {
  %6 = alloca ptr, align 8
  %7 = alloca ptr, align 8
  %8 = alloca ptr, align 8
  %9 = alloca ptr, align 8
  %10 = alloca ptr, align 8
  %11 = alloca ptr, align 8
  %12 = alloca ptr, align 8
  %13 = alloca i32, align 4
  %14 = alloca ptr, align 8
  %15 = alloca ptr, align 8
  %16 = alloca i32, align 4
  store ptr %0, ptr %7, align 8, !tbaa !9
  store ptr %1, ptr %8, align 8, !tbaa !9
  store ptr %2, ptr %9, align 8, !tbaa !9
  store ptr %3, ptr %10, align 8, !tbaa !9
  store ptr %4, ptr %11, align 8, !tbaa !9
  call void @llvm.lifetime.start.p0(i64 8, ptr %12) #13
  %17 = call ptr @_PyThreadState_GET()
  store ptr %17, ptr %12, align 8, !tbaa !4
  call void @llvm.lifetime.start.p0(i64 4, ptr %13) #13
  call void @llvm.lifetime.start.p0(i64 8, ptr %14) #13
  call void @llvm.lifetime.start.p0(i64 8, ptr %15) #13
  %18 = load ptr, ptr %7, align 8, !tbaa !9
  %19 = load ptr, ptr @PyExc_ImportError, align 8, !tbaa !9
  %20 = call i32 @PyObject_IsSubclass(ptr noundef %18, ptr noundef %19)
  store i32 %20, ptr %13, align 4, !tbaa !45
  %21 = load i32, ptr %13, align 4, !tbaa !45
  %22 = icmp slt i32 %21, 0
  br i1 %22, label %23, label %24

23:                                               ; preds = %5
  store ptr null, ptr %6, align 8
  store i32 1, ptr %16, align 4
  br label %87

24:                                               ; preds = %5
  %25 = load i32, ptr %13, align 4, !tbaa !45
  %26 = icmp ne i32 %25, 0
  br i1 %26, label %30, label %27

27:                                               ; preds = %24
  %28 = load ptr, ptr %12, align 8, !tbaa !4
  %29 = load ptr, ptr @PyExc_TypeError, align 8, !tbaa !9
  call void @_PyErr_SetString(ptr noundef %28, ptr noundef %29, ptr noundef @.str.26)
  store ptr null, ptr %6, align 8
  store i32 1, ptr %16, align 4
  br label %87

30:                                               ; preds = %24
  br label %31

31:                                               ; preds = %30
  %32 = load ptr, ptr %8, align 8, !tbaa !9
  %33 = icmp eq ptr %32, null
  br i1 %33, label %34, label %37

34:                                               ; preds = %31
  %35 = load ptr, ptr %12, align 8, !tbaa !4
  %36 = load ptr, ptr @PyExc_TypeError, align 8, !tbaa !9
  call void @_PyErr_SetString(ptr noundef %35, ptr noundef %36, ptr noundef @.str.27)
  store ptr null, ptr %6, align 8
  store i32 1, ptr %16, align 4
  br label %87

37:                                               ; preds = %31
  %38 = load ptr, ptr %9, align 8, !tbaa !9
  %39 = icmp eq ptr %38, null
  br i1 %39, label %40, label %41

40:                                               ; preds = %37
  store ptr @_Py_NoneStruct, ptr %9, align 8, !tbaa !9
  br label %41

41:                                               ; preds = %40, %37
  %42 = load ptr, ptr %10, align 8, !tbaa !9
  %43 = icmp eq ptr %42, null
  br i1 %43, label %44, label %45

44:                                               ; preds = %41
  store ptr @_Py_NoneStruct, ptr %10, align 8, !tbaa !9
  br label %45

45:                                               ; preds = %44, %41
  %46 = load ptr, ptr %11, align 8, !tbaa !9
  %47 = icmp eq ptr %46, null
  br i1 %47, label %48, label %49

48:                                               ; preds = %45
  store ptr @_Py_NoneStruct, ptr %11, align 8, !tbaa !9
  br label %49

49:                                               ; preds = %48, %45
  %50 = call ptr @PyDict_New()
  store ptr %50, ptr %14, align 8, !tbaa !9
  %51 = load ptr, ptr %14, align 8, !tbaa !9
  %52 = icmp eq ptr %51, null
  br i1 %52, label %53, label %54

53:                                               ; preds = %49
  store ptr null, ptr %6, align 8
  store i32 1, ptr %16, align 4
  br label %87

54:                                               ; preds = %49
  %55 = load ptr, ptr %14, align 8, !tbaa !9
  %56 = load ptr, ptr %9, align 8, !tbaa !9
  %57 = call i32 @PyDict_SetItemString(ptr noundef %55, ptr noundef @.str.28, ptr noundef %56)
  %58 = icmp slt i32 %57, 0
  br i1 %58, label %59, label %60

59:                                               ; preds = %54
  br label %85

60:                                               ; preds = %54
  %61 = load ptr, ptr %14, align 8, !tbaa !9
  %62 = load ptr, ptr %10, align 8, !tbaa !9
  %63 = call i32 @PyDict_SetItemString(ptr noundef %61, ptr noundef @.str.29, ptr noundef %62)
  %64 = icmp slt i32 %63, 0
  br i1 %64, label %65, label %66

65:                                               ; preds = %60
  br label %85

66:                                               ; preds = %60
  %67 = load ptr, ptr %14, align 8, !tbaa !9
  %68 = load ptr, ptr %11, align 8, !tbaa !9
  %69 = call i32 @PyDict_SetItemString(ptr noundef %67, ptr noundef @.str.30, ptr noundef %68)
  %70 = icmp slt i32 %69, 0
  br i1 %70, label %71, label %72

71:                                               ; preds = %66
  br label %85

72:                                               ; preds = %66
  %73 = load ptr, ptr %7, align 8, !tbaa !9
  %74 = load ptr, ptr %14, align 8, !tbaa !9
  %75 = call ptr @PyObject_VectorcallDict(ptr noundef %73, ptr noundef %8, i64 noundef 1, ptr noundef %74)
  store ptr %75, ptr %15, align 8, !tbaa !9
  %76 = load ptr, ptr %15, align 8, !tbaa !9
  %77 = icmp ne ptr %76, null
  br i1 %77, label %78, label %84

78:                                               ; preds = %72
  %79 = load ptr, ptr %12, align 8, !tbaa !4
  %80 = load ptr, ptr %15, align 8, !tbaa !9
  %81 = call ptr @_Py_TYPE(ptr noundef %80)
  %82 = load ptr, ptr %15, align 8, !tbaa !9
  call void @_PyErr_SetObject(ptr noundef %79, ptr noundef %81, ptr noundef %82)
  %83 = load ptr, ptr %15, align 8, !tbaa !9
  call void @Py_DECREF(ptr noundef %83)
  br label %84

84:                                               ; preds = %78, %72
  br label %85

85:                                               ; preds = %84, %71, %65, %59
  %86 = load ptr, ptr %14, align 8, !tbaa !9
  call void @Py_DECREF(ptr noundef %86)
  store ptr null, ptr %6, align 8
  store i32 1, ptr %16, align 4
  br label %87

87:                                               ; preds = %85, %53, %34, %27, %23
  call void @llvm.lifetime.end.p0(i64 8, ptr %15) #13
  call void @llvm.lifetime.end.p0(i64 8, ptr %14) #13
  call void @llvm.lifetime.end.p0(i64 4, ptr %13) #13
  call void @llvm.lifetime.end.p0(i64 8, ptr %12) #13
  %88 = load ptr, ptr %6, align 8
  ret ptr %88
}