; Function Attrs: nounwind uwtable
define internal fastcc void @_PyErr_SetImportErrorSubclassWithNameFrom(ptr noundef %0, ptr noundef %1, ptr noundef %2, ptr noundef %3, ptr noundef %4) unnamed_addr #0 {
  %6 = alloca ptr, align 8
  store ptr %1, ptr %6, align 8, !tbaa !24
  %7 = tail call align 8 ptr @llvm.threadlocal.address.p0(ptr align 8 @_Py_tss_tstate)
  %8 = load ptr, ptr %7, align 8, !tbaa !25
  %9 = load ptr, ptr @PyExc_ImportError, align 8, !tbaa !24
  %10 = tail call i32 @PyObject_IsSubclass(ptr noundef %0, ptr noundef %9) #17
  %11 = icmp slt i32 %10, 0
  br i1 %11, label %_PyErr_SetString.exit, label %12

12:                                               ; preds = %5
  %.not = icmp eq i32 %10, 0
  br i1 %.not, label %13, label %22

13:                                               ; preds = %12
  %14 = load ptr, ptr @PyExc_TypeError, align 8, !tbaa !24
  %15 = tail call ptr @PyUnicode_FromString(ptr noundef nonnull @.str.26) #17
  %.not.i31 = icmp eq ptr %15, null
  br i1 %.not.i31, label %_PyErr_SetString.exit, label %16

16:                                               ; preds = %13
  tail call void @_PyErr_SetObject(ptr noundef %8, ptr noundef %14, ptr noundef nonnull %15)
  %17 = load i32, ptr %15, align 8, !tbaa !20
  %.not.i.i = icmp sgt i32 %17, -1
  br i1 %.not.i.i, label %18, label %_PyErr_SetString.exit

18:                                               ; preds = %16
  %19 = add nsw i32 %17, -1
  store i32 %19, ptr %15, align 8, !tbaa !20
  %20 = icmp eq i32 %19, 0
  br i1 %20, label %21, label %_PyErr_SetString.exit

21:                                               ; preds = %18
  tail call void @_Py_Dealloc(ptr noundef nonnull %15) #17
  br label %_PyErr_SetString.exit

22:                                               ; preds = %12
  %23 = icmp eq ptr %1, null
  br i1 %23, label %24, label %33

24:                                               ; preds = %22
  %25 = load ptr, ptr @PyExc_TypeError, align 8, !tbaa !24
  %26 = tail call ptr @PyUnicode_FromString(ptr noundef nonnull @.str.27) #17
  %.not.i32 = icmp eq ptr %26, null
  br i1 %.not.i32, label %_PyErr_SetString.exit, label %27

27:                                               ; preds = %24
  tail call void @_PyErr_SetObject(ptr noundef %8, ptr noundef %25, ptr noundef nonnull %26)
  %28 = load i32, ptr %26, align 8, !tbaa !20
  %.not.i.i33 = icmp sgt i32 %28, -1
  br i1 %.not.i.i33, label %29, label %_PyErr_SetString.exit

29:                                               ; preds = %27
  %30 = add nsw i32 %28, -1
  store i32 %30, ptr %26, align 8, !tbaa !20
  %31 = icmp eq i32 %30, 0
  br i1 %31, label %32, label %_PyErr_SetString.exit

32:                                               ; preds = %29
  tail call void @_Py_Dealloc(ptr noundef nonnull %26) #17
  br label %_PyErr_SetString.exit

33:                                               ; preds = %22
  %34 = icmp eq ptr %3, null
  %spec.store.select2 = select i1 %34, ptr @_Py_NoneStruct, ptr %3
  %35 = icmp eq ptr %4, null
  %spec.store.select1 = select i1 %35, ptr @_Py_NoneStruct, ptr %4
  %36 = tail call ptr @PyDict_New() #17
  %37 = icmp eq ptr %36, null
  br i1 %37, label %_PyErr_SetString.exit, label %38

38:                                               ; preds = %33
  %39 = icmp eq ptr %2, null
  %spec.store.select = select i1 %39, ptr @_Py_NoneStruct, ptr %2
  %40 = tail call i32 @PyDict_SetItemString(ptr noundef nonnull %36, ptr noundef nonnull @.str.28, ptr noundef nonnull %spec.store.select) #17
  %41 = icmp slt i32 %40, 0
  br i1 %41, label %Py_DECREF.exit29, label %42

42:                                               ; preds = %38
  %43 = tail call i32 @PyDict_SetItemString(ptr noundef nonnull %36, ptr noundef nonnull @.str.29, ptr noundef nonnull %spec.store.select2) #17
  %44 = icmp slt i32 %43, 0
  br i1 %44, label %Py_DECREF.exit29, label %45

45:                                               ; preds = %42
  %46 = tail call i32 @PyDict_SetItemString(ptr noundef nonnull %36, ptr noundef nonnull @.str.30, ptr noundef nonnull %spec.store.select1) #17
  %47 = icmp slt i32 %46, 0
  br i1 %47, label %Py_DECREF.exit29, label %48

48:                                               ; preds = %45
  %49 = call ptr @PyObject_VectorcallDict(ptr noundef %0, ptr noundef nonnull %6, i64 noundef 1, ptr noundef nonnull %36) #17
  %.not27 = icmp eq ptr %49, null
  br i1 %.not27, label %Py_DECREF.exit29, label %50

50:                                               ; preds = %48
  %51 = getelementptr i8, ptr %49, i64 8
  %.val = load ptr, ptr %51, align 8, !tbaa !21
  call void @_PyErr_SetObject(ptr noundef %8, ptr noundef %.val, ptr noundef nonnull %49)
  %52 = load i32, ptr %49, align 8, !tbaa !20
  %.not.i28 = icmp sgt i32 %52, -1
  br i1 %.not.i28, label %53, label %Py_DECREF.exit29

53:                                               ; preds = %50
  %54 = add nsw i32 %52, -1
  store i32 %54, ptr %49, align 8, !tbaa !20
  %55 = icmp eq i32 %54, 0
  br i1 %55, label %56, label %Py_DECREF.exit29

56:                                               ; preds = %53
  call void @_Py_Dealloc(ptr noundef nonnull %49) #17
  br label %Py_DECREF.exit29

Py_DECREF.exit29:                                 ; preds = %56, %53, %50, %48, %45, %42, %38
  %57 = load i32, ptr %36, align 8, !tbaa !20
  %.not.i = icmp sgt i32 %57, -1
  br i1 %.not.i, label %58, label %_PyErr_SetString.exit

58:                                               ; preds = %Py_DECREF.exit29
  %59 = add nsw i32 %57, -1
  store i32 %59, ptr %36, align 8, !tbaa !20
  %60 = icmp eq i32 %59, 0
  br i1 %60, label %61, label %_PyErr_SetString.exit

61:                                               ; preds = %58
  call void @_Py_Dealloc(ptr noundef nonnull %36) #17
  br label %_PyErr_SetString.exit

_PyErr_SetString.exit:                            ; preds = %61, %58, %Py_DECREF.exit29, %32, %29, %27, %24, %21, %18, %16, %13, %33, %5
  ret void
}